#include <math.h>
#include <stdio.h>
#include <stdlib.h>
#include <string.h>

void main()
{  int n=0,i,j,k,b,a;char max;
   char str[100][10];char substr[100][3];
    while((scanf("%s %s",str[n],substr[n]))!=EOF)
      {
          n++;
      }
    for(i=0;i<n;i++)
          {k=strlen(str[i]);
           max=str[i][0];
           for(j=1;j<k;j++)
              { if(str[i][j]>max) {max=str[i][j];b=j;}}
        for(a=0;a<=b;a++)
           {printf("%c",str[i][a]);}
          for(a=0;a<3;a++)
          {
              printf("%c",substr[i][a]);
          }
        for(a=b+1;a<k;a++)
           {printf("%c",str[i][a]);}
        printf("\n");
        }
}



